target datalayout = "e-m:e-p270:32:32-p271:32:32-p272:64:64-i64:64-i128:128-f80:128-n8:16:32:64-S128"
target triple = "x86_64-pc-linux-gnu"

%"class.icu_77::RegexMatcher" = type { %"class.icu_77::UObject", ptr, ptr, ptr, ptr, ptr, i64, i32, i64, i64, i64, i64, i64, i64, i64, i64, i8, i8, i8, i64, i64, i64, i64, i8, i8, ptr, ptr, ptr, [8 x i64], i32, i32, i32, i32, ptr, ptr, ptr, ptr, i8, i8, i32, ptr, ptr }
%"class.icu_77::UObject" = type { ptr }

; Function Attrs: mustprogress nounwind uwtable
define void @_ZN6icu_7712RegexMatcherD2Ev(ptr noundef nonnull align 8 dereferenceable(336) %0) unnamed_addr #0 align 2 personality ptr @__gxx_personality_v0 {
  %2 = alloca ptr, align 8
  store ptr %0, ptr %2, align 8, !tbaa !23
  %3 = load ptr, ptr %2, align 8
  %4 = getelementptr inbounds nuw %"class.icu_77::RegexMatcher", ptr %3, i32 0, i32 25
  %5 = load ptr, ptr %4, align 8, !tbaa !73
  %6 = icmp eq ptr %5, null
  br i1 %6, label %11, label %7

7:                                                ; preds = %1
  %8 = load ptr, ptr %5, align 8, !tbaa !27
  %9 = getelementptr inbounds ptr, ptr %8, i64 1
  %10 = load ptr, ptr %9, align 8
  call void %10(ptr noundef nonnull align 8 dereferenceable(32) %5) #11
  br label %11

11:                                               ; preds = %7, %1
  %12 = getelementptr inbounds nuw %"class.icu_77::RegexMatcher", ptr %3, i32 0, i32 27
  %13 = load ptr, ptr %12, align 8, !tbaa !84
  %14 = getelementptr inbounds nuw %"class.icu_77::RegexMatcher", ptr %3, i32 0, i32 28
  %15 = getelementptr inbounds [8 x i64], ptr %14, i64 0, i64 0
  %16 = icmp ne ptr %13, %15
  br i1 %16, label %17, label %22

17:                                               ; preds = %11
  %18 = getelementptr inbounds nuw %"class.icu_77::RegexMatcher", ptr %3, i32 0, i32 27
  %19 = load ptr, ptr %18, align 8, !tbaa !84
  invoke void @uprv_free_77(ptr noundef %19)
          to label %20 unwind label %77

20:                                               ; preds = %17
  %21 = getelementptr inbounds nuw %"class.icu_77::RegexMatcher", ptr %3, i32 0, i32 27
  store ptr null, ptr %21, align 8, !tbaa !84
  br label %22

22:                                               ; preds = %20, %11
  %23 = getelementptr inbounds nuw %"class.icu_77::RegexMatcher", ptr %3, i32 0, i32 2
  %24 = load ptr, ptr %23, align 8, !tbaa !54
  %25 = icmp ne ptr %24, null
  br i1 %25, label %26, label %34

26:                                               ; preds = %22
  %27 = getelementptr inbounds nuw %"class.icu_77::RegexMatcher", ptr %3, i32 0, i32 2
  %28 = load ptr, ptr %27, align 8, !tbaa !54
  %29 = icmp eq ptr %28, null
  br i1 %29, label %31, label %30

30:                                               ; preds = %26
  call void @_ZN6icu_7712RegexPatternD1Ev(ptr noundef nonnull align 8 dereferenceable(200) %28) #11
  call void @_ZN6icu_777UMemorydlEPv(ptr noundef %28) #11
  br label %31

31:                                               ; preds = %30, %26
  %32 = getelementptr inbounds nuw %"class.icu_77::RegexMatcher", ptr %3, i32 0, i32 2
  store ptr null, ptr %32, align 8, !tbaa !54
  %33 = getelementptr inbounds nuw %"class.icu_77::RegexMatcher", ptr %3, i32 0, i32 1
  store ptr null, ptr %33, align 8, !tbaa !38
  br label %34

34:                                               ; preds = %31, %22
  %35 = getelementptr inbounds nuw %"class.icu_77::RegexMatcher", ptr %3, i32 0, i32 3
  %36 = load ptr, ptr %35, align 8, !tbaa !89
  %37 = icmp eq ptr %36, null
  br i1 %37, label %42, label %38

38:                                               ; preds = %34
  %39 = load ptr, ptr %36, align 8, !tbaa !27
  %40 = getelementptr inbounds ptr, ptr %39, i64 1
  %41 = load ptr, ptr %40, align 8
  call void %41(ptr noundef nonnull align 8 dereferenceable(64) %36) #11
  br label %42

42:                                               ; preds = %38, %34
  %43 = getelementptr inbounds nuw %"class.icu_77::RegexMatcher", ptr %3, i32 0, i32 4
  %44 = load ptr, ptr %43, align 8, !tbaa !87
  %45 = icmp ne ptr %44, null
  br i1 %45, label %46, label %51

46:                                               ; preds = %42
  %47 = getelementptr inbounds nuw %"class.icu_77::RegexMatcher", ptr %3, i32 0, i32 4
  %48 = load ptr, ptr %47, align 8, !tbaa !87
  %49 = invoke ptr @utext_close_77(ptr noundef %48)
          to label %50 unwind label %77

50:                                               ; preds = %46
  br label %51

51:                                               ; preds = %50, %42
  %52 = getelementptr inbounds nuw %"class.icu_77::RegexMatcher", ptr %3, i32 0, i32 5
  %53 = load ptr, ptr %52, align 8, !tbaa !88
  %54 = icmp ne ptr %53, null
  br i1 %54, label %55, label %60

55:                                               ; preds = %51
  %56 = getelementptr inbounds nuw %"class.icu_77::RegexMatcher", ptr %3, i32 0, i32 5
  %57 = load ptr, ptr %56, align 8, !tbaa !88
  %58 = invoke ptr @utext_close_77(ptr noundef %57)
          to label %59 unwind label %77

59:                                               ; preds = %55
  br label %60

60:                                               ; preds = %59, %51
  %61 = getelementptr inbounds nuw %"class.icu_77::RegexMatcher", ptr %3, i32 0, i32 40
  %62 = load ptr, ptr %61, align 8, !tbaa !85
  %63 = icmp eq ptr %62, null
  br i1 %63, label %68, label %64

64:                                               ; preds = %60
  %65 = load ptr, ptr %62, align 8, !tbaa !27
  %66 = getelementptr inbounds ptr, ptr %65, i64 1
  %67 = load ptr, ptr %66, align 8
  call void %67(ptr noundef nonnull align 8 dereferenceable(32) %62) #11
  br label %68

68:                                               ; preds = %64, %60
  %69 = getelementptr inbounds nuw %"class.icu_77::RegexMatcher", ptr %3, i32 0, i32 41
  %70 = load ptr, ptr %69, align 8, !tbaa !86
  %71 = icmp eq ptr %70, null
  br i1 %71, label %76, label %72

72:                                               ; preds = %68
  %73 = load ptr, ptr %70, align 8, !tbaa !27
  %74 = getelementptr inbounds ptr, ptr %73, i64 1
  %75 = load ptr, ptr %74, align 8
  call void %75(ptr noundef nonnull align 8 dereferenceable(32) %70) #11
  br label %76

76:                                               ; preds = %72, %68
  call void @_ZN6icu_777UObjectD2Ev(ptr noundef nonnull align 8 dereferenceable(8) %3) #11
  ret void

77:                                               ; preds = %55, %46, %17
  %78 = landingpad { ptr, i32 }
          catch ptr null
  %79 = extractvalue { ptr, i32 } %78, 0
  call void @__clang_call_terminate(ptr %79) #13
  unreachable
}