; Function Attrs: mustprogress nounwind uwtable
define void @_ZN6icu_7712RegexMatcherD2Ev(ptr noundef nonnull align 8 dereferenceable(336) %0) unnamed_addr #0 align 2 personality ptr @__gxx_personality_v0 {
  %2 = getelementptr inbounds nuw i8, ptr %0, i64 176
  %3 = load ptr, ptr %2, align 8, !tbaa !64
  %4 = icmp eq ptr %3, null
  br i1 %4, label %9, label %5

5:                                                ; preds = %1
  %6 = load ptr, ptr %3, align 8, !tbaa !15
  %7 = getelementptr inbounds nuw i8, ptr %6, i64 8
  %8 = load ptr, ptr %7, align 8
  tail call void %8(ptr noundef nonnull align 8 dereferenceable(32) %3) #21
  br label %9

9:                                                ; preds = %5, %1
  %10 = getelementptr inbounds nuw i8, ptr %0, i64 192
  %11 = load ptr, ptr %10, align 8, !tbaa !40
  %12 = getelementptr inbounds nuw i8, ptr %0, i64 200
  %.not = icmp eq ptr %11, %12
  br i1 %.not, label %15, label %13

13:                                               ; preds = %9
  invoke void @uprv_free_77(ptr noundef %11)
          to label %14 unwind label %55

14:                                               ; preds = %13
  store ptr null, ptr %10, align 8, !tbaa !40
  br label %15

15:                                               ; preds = %14, %9
  %16 = getelementptr inbounds nuw i8, ptr %0, i64 16
  %17 = load ptr, ptr %16, align 8, !tbaa !75
  %.not8 = icmp eq ptr %17, null
  br i1 %.not8, label %20, label %18

18:                                               ; preds = %15
  tail call void @_ZN6icu_7712RegexPatternD1Ev(ptr noundef nonnull align 8 dereferenceable(200) %17) #21
  tail call void @_ZN6icu_777UMemorydlEPv(ptr noundef nonnull %17) #21
  %19 = getelementptr inbounds nuw i8, ptr %0, i64 8
  tail call void @llvm.memset.p0.i64(ptr noundef nonnull align 8 dereferenceable(16) %19, i8 0, i64 16, i1 false)
  br label %20

20:                                               ; preds = %18, %15
  %21 = getelementptr inbounds nuw i8, ptr %0, i64 24
  %22 = load ptr, ptr %21, align 8, !tbaa !76
  %23 = icmp eq ptr %22, null
  br i1 %23, label %28, label %24

24:                                               ; preds = %20
  %25 = load ptr, ptr %22, align 8, !tbaa !15
  %26 = getelementptr inbounds nuw i8, ptr %25, i64 8
  %27 = load ptr, ptr %26, align 8
  tail call void %27(ptr noundef nonnull align 8 dereferenceable(64) %22) #21
  br label %28

28:                                               ; preds = %24, %20
  %29 = getelementptr inbounds nuw i8, ptr %0, i64 32
  %30 = load ptr, ptr %29, align 8, !tbaa !77
  %.not9 = icmp eq ptr %30, null
  br i1 %.not9, label %33, label %31

31:                                               ; preds = %28
  %32 = invoke ptr @utext_close_77(ptr noundef nonnull %30)
          to label %33 unwind label %55

33:                                               ; preds = %31, %28
  %34 = getelementptr inbounds nuw i8, ptr %0, i64 40
  %35 = load ptr, ptr %34, align 8, !tbaa !78
  %.not10 = icmp eq ptr %35, null
  br i1 %.not10, label %38, label %36

36:                                               ; preds = %33
  %37 = invoke ptr @utext_close_77(ptr noundef nonnull %35)
          to label %38 unwind label %55

38:                                               ; preds = %36, %33
  %39 = getelementptr inbounds nuw i8, ptr %0, i64 320
  %40 = load ptr, ptr %39, align 8, !tbaa !79
  %41 = icmp eq ptr %40, null
  br i1 %41, label %46, label %42

42:                                               ; preds = %38
  %43 = load ptr, ptr %40, align 8, !tbaa !15
  %44 = getelementptr inbounds nuw i8, ptr %43, i64 8
  %45 = load ptr, ptr %44, align 8
  tail call void %45(ptr noundef nonnull align 8 dereferenceable(32) %40) #21
  br label %46

46:                                               ; preds = %42, %38
  %47 = getelementptr inbounds nuw i8, ptr %0, i64 328
  %48 = load ptr, ptr %47, align 8, !tbaa !80
  %49 = icmp eq ptr %48, null
  br i1 %49, label %54, label %50

50:                                               ; preds = %46
  %51 = load ptr, ptr %48, align 8, !tbaa !15
  %52 = getelementptr inbounds nuw i8, ptr %51, i64 8
  %53 = load ptr, ptr %52, align 8
  tail call void %53(ptr noundef nonnull align 8 dereferenceable(32) %48) #21
  br label %54

54:                                               ; preds = %50, %46
  tail call void @_ZN6icu_777UObjectD2Ev(ptr noundef nonnull align 8 dereferenceable(8) %0) #21
  ret void

55:                                               ; preds = %36, %31, %13
  %56 = landingpad { ptr, i32 }
          catch ptr null
  %57 = extractvalue { ptr, i32 } %56, 0
  tail call void @__clang_call_terminate(ptr %57) #23
  unreachable
}